target datalayout = "e-m:e-p270:32:32-p271:32:32-p272:64:64-i64:64-f80:128-n8:16:32:64-S128"
target triple = "x86_64-pc-linux-gnu"

@.str = private unnamed_addr constant [5 x i8] c"%d%d\00", align 1
@.str.1 = private unnamed_addr constant [3 x i8] c"%d\00", align 1
@.str.2 = private unnamed_addr constant [4 x i8] c" %d\00", align 1
@.str.3 = private unnamed_addr constant [2 x i8] c"\0A\00", align 1

; Function Attrs: noinline nounwind uwtable
define dso_local i32 @main() #0 {
  %1 = alloca i32, align 4
  %2 = alloca [10 x [10 x i32]], align 16
  %3 = alloca [10 x [10 x i32]], align 16
  %4 = alloca i32, align 4
  %5 = alloca i32, align 4
  %6 = alloca i32, align 4
  %7 = alloca i32, align 4
  store i32 0, i32* %1, align 4
  %8 = bitcast [10 x [10 x i32]]* %2 to i8*
  call void @llvm.memset.p0i8.i64(i8* align 16 %8, i8 0, i64 400, i1 false)
  %9 = bitcast [10 x [10 x i32]]* %3 to i8*
  call void @llvm.memset.p0i8.i64(i8* align 16 %9, i8 0, i64 400, i1 false)
  %10 = getelementptr inbounds [10 x [10 x i32]], [10 x [10 x i32]]* %2, i64 0, i64 5
  %11 = getelementptr inbounds [10 x i32], [10 x i32]* %10, i64 0, i64 5
  %12 = call i32 (i8*, ...) @__isoc99_scanf(i8* getelementptr inbounds ([5 x i8], [5 x i8]* @.str, i64 0, i64 0), i32* %11, i32* %7)
  %13 = getelementptr inbounds [10 x [10 x i32]], [10 x [10 x i32]]* %2, i64 0, i64 5
  %14 = getelementptr inbounds [10 x i32], [10 x i32]* %13, i64 0, i64 5
  %15 = load i32, i32* %14, align 4
  %16 = getelementptr inbounds [10 x [10 x i32]], [10 x [10 x i32]]* %3, i64 0, i64 5
  %17 = getelementptr inbounds [10 x i32], [10 x i32]* %16, i64 0, i64 5
  store i32 %15, i32* %17, align 4
  store i32 1, i32* %6, align 4
  br label %18

18:                                               ; preds = %225, %0
  %19 = load i32, i32* %6, align 4
  %20 = load i32, i32* %7, align 4
  %21 = icmp sle i32 %19, %20
  br i1 %21, label %22, label %228

22:                                               ; preds = %18
  store i32 1, i32* %4, align 4
  br label %23

23:                                               ; preds = %192, %22
  %24 = load i32, i32* %4, align 4
  %25 = icmp sle i32 %24, 9
  br i1 %25, label %26, label %195

26:                                               ; preds = %23
  store i32 1, i32* %5, align 4
  br label %27

27:                                               ; preds = %188, %26
  %28 = load i32, i32* %5, align 4
  %29 = icmp sle i32 %28, 9
  br i1 %29, label %30, label %191

30:                                               ; preds = %27
  %31 = load i32, i32* %4, align 4
  %32 = sext i32 %31 to i64
  %33 = getelementptr inbounds [10 x [10 x i32]], [10 x [10 x i32]]* %2, i64 0, i64 %32
  %34 = load i32, i32* %5, align 4
  %35 = sext i32 %34 to i64
  %36 = getelementptr inbounds [10 x i32], [10 x i32]* %33, i64 0, i64 %35
  %37 = load i32, i32* %36, align 4
  %38 = icmp ne i32 %37, 0
  br i1 %38, label %39, label %187

39:                                               ; preds = %30
  %40 = load i32, i32* %4, align 4
  %41 = sext i32 %40 to i64
  %42 = getelementptr inbounds [10 x [10 x i32]], [10 x [10 x i32]]* %2, i64 0, i64 %41
  %43 = load i32, i32* %5, align 4
  %44 = sext i32 %43 to i64
  %45 = getelementptr inbounds [10 x i32], [10 x i32]* %42, i64 0, i64 %44
  %46 = load i32, i32* %45, align 4
  %47 = load i32, i32* %4, align 4
  %48 = sub nsw i32 %47, 1
  %49 = sext i32 %48 to i64
  %50 = getelementptr inbounds [10 x [10 x i32]], [10 x [10 x i32]]* %3, i64 0, i64 %49
  %51 = load i32, i32* %5, align 4
  %52 = sub nsw i32 %51, 1
  %53 = sext i32 %52 to i64
  %54 = getelementptr inbounds [10 x i32], [10 x i32]* %50, i64 0, i64 %53
  %55 = load i32, i32* %54, align 4
  %56 = add nsw i32 %55, %46
  store i32 %56, i32* %54, align 4
  %57 = load i32, i32* %4, align 4
  %58 = sext i32 %57 to i64
  %59 = getelementptr inbounds [10 x [10 x i32]], [10 x [10 x i32]]* %2, i64 0, i64 %58
  %60 = load i32, i32* %5, align 4
  %61 = sext i32 %60 to i64
  %62 = getelementptr inbounds [10 x i32], [10 x i32]* %59, i64 0, i64 %61
  %63 = load i32, i32* %62, align 4
  %64 = load i32, i32* %4, align 4
  %65 = sub nsw i32 %64, 1
  %66 = sext i32 %65 to i64
  %67 = getelementptr inbounds [10 x [10 x i32]], [10 x [10 x i32]]* %3, i64 0, i64 %66
  %68 = load i32, i32* %5, align 4
  %69 = sext i32 %68 to i64
  %70 = getelementptr inbounds [10 x i32], [10 x i32]* %67, i64 0, i64 %69
  %71 = load i32, i32* %70, align 4
  %72 = add nsw i32 %71, %63
  store i32 %72, i32* %70, align 4
  %73 = load i32, i32* %4, align 4
  %74 = sext i32 %73 to i64
  %75 = getelementptr inbounds [10 x [10 x i32]], [10 x [10 x i32]]* %2, i64 0, i64 %74
  %76 = load i32, i32* %5, align 4
  %77 = sext i32 %76 to i64
  %78 = getelementptr inbounds [10 x i32], [10 x i32]* %75, i64 0, i64 %77
  %79 = load i32, i32* %78, align 4
  %80 = load i32, i32* %4, align 4
  %81 = sub nsw i32 %80, 1
  %82 = sext i32 %81 to i64
  %83 = getelementptr inbounds [10 x [10 x i32]], [10 x [10 x i32]]* %3, i64 0, i64 %82
  %84 = load i32, i32* %5, align 4
  %85 = add nsw i32 %84, 1
  %86 = sext i32 %85 to i64
  %87 = getelementptr inbounds [10 x i32], [10 x i32]* %83, i64 0, i64 %86
  %88 = load i32, i32* %87, align 4
  %89 = add nsw i32 %88, %79
  store i32 %89, i32* %87, align 4
  %90 = load i32, i32* %4, align 4
  %91 = sext i32 %90 to i64
  %92 = getelementptr inbounds [10 x [10 x i32]], [10 x [10 x i32]]* %2, i64 0, i64 %91
  %93 = load i32, i32* %5, align 4
  %94 = sext i32 %93 to i64
  %95 = getelementptr inbounds [10 x i32], [10 x i32]* %92, i64 0, i64 %94
  %96 = load i32, i32* %95, align 4
  %97 = load i32, i32* %4, align 4
  %98 = sext i32 %97 to i64
  %99 = getelementptr inbounds [10 x [10 x i32]], [10 x [10 x i32]]* %3, i64 0, i64 %98
  %100 = load i32, i32* %5, align 4
  %101 = sub nsw i32 %100, 1
  %102 = sext i32 %101 to i64
  %103 = getelementptr inbounds [10 x i32], [10 x i32]* %99, i64 0, i64 %102
  %104 = load i32, i32* %103, align 4
  %105 = add nsw i32 %104, %96
  store i32 %105, i32* %103, align 4
  %106 = load i32, i32* %4, align 4
  %107 = sext i32 %106 to i64
  %108 = getelementptr inbounds [10 x [10 x i32]], [10 x [10 x i32]]* %2, i64 0, i64 %107
  %109 = load i32, i32* %5, align 4
  %110 = sext i32 %109 to i64
  %111 = getelementptr inbounds [10 x i32], [10 x i32]* %108, i64 0, i64 %110
  %112 = load i32, i32* %111, align 4
  %113 = load i32, i32* %4, align 4
  %114 = sext i32 %113 to i64
  %115 = getelementptr inbounds [10 x [10 x i32]], [10 x [10 x i32]]* %3, i64 0, i64 %114
  %116 = load i32, i32* %5, align 4
  %117 = sext i32 %116 to i64
  %118 = getelementptr inbounds [10 x i32], [10 x i32]* %115, i64 0, i64 %117
  %119 = load i32, i32* %118, align 4
  %120 = add nsw i32 %119, %112
  store i32 %120, i32* %118, align 4
  %121 = load i32, i32* %4, align 4
  %122 = sext i32 %121 to i64
  %123 = getelementptr inbounds [10 x [10 x i32]], [10 x [10 x i32]]* %2, i64 0, i64 %122
  %124 = load i32, i32* %5, align 4
  %125 = sext i32 %124 to i64
  %126 = getelementptr inbounds [10 x i32], [10 x i32]* %123, i64 0, i64 %125
  %127 = load i32, i32* %126, align 4
  %128 = load i32, i32* %4, align 4
  %129 = sext i32 %128 to i64
  %130 = getelementptr inbounds [10 x [10 x i32]], [10 x [10 x i32]]* %3, i64 0, i64 %129
  %131 = load i32, i32* %5, align 4
  %132 = add nsw i32 %131, 1
  %133 = sext i32 %132 to i64
  %134 = getelementptr inbounds [10 x i32], [10 x i32]* %130, i64 0, i64 %133
  %135 = load i32, i32* %134, align 4
  %136 = add nsw i32 %135, %127
  store i32 %136, i32* %134, align 4
  %137 = load i32, i32* %4, align 4
  %138 = sext i32 %137 to i64
  %139 = getelementptr inbounds [10 x [10 x i32]], [10 x [10 x i32]]* %2, i64 0, i64 %138
  %140 = load i32, i32* %5, align 4
  %141 = sext i32 %140 to i64
  %142 = getelementptr inbounds [10 x i32], [10 x i32]* %139, i64 0, i64 %141
  %143 = load i32, i32* %142, align 4
  %144 = load i32, i32* %4, align 4
  %145 = add nsw i32 %144, 1
  %146 = sext i32 %145 to i64
  %147 = getelementptr inbounds [10 x [10 x i32]], [10 x [10 x i32]]* %3, i64 0, i64 %146
  %148 = load i32, i32* %5, align 4
  %149 = sub nsw i32 %148, 1
  %150 = sext i32 %149 to i64
  %151 = getelementptr inbounds [10 x i32], [10 x i32]* %147, i64 0, i64 %150
  %152 = load i32, i32* %151, align 4
  %153 = add nsw i32 %152, %143
  store i32 %153, i32* %151, align 4
  %154 = load i32, i32* %4, align 4
  %155 = sext i32 %154 to i64
  %156 = getelementptr inbounds [10 x [10 x i32]], [10 x [10 x i32]]* %2, i64 0, i64 %155
  %157 = load i32, i32* %5, align 4
  %158 = sext i32 %157 to i64
  %159 = getelementptr inbounds [10 x i32], [10 x i32]* %156, i64 0, i64 %158
  %160 = load i32, i32* %159, align 4
  %161 = load i32, i32* %4, align 4
  %162 = add nsw i32 %161, 1
  %163 = sext i32 %162 to i64
  %164 = getelementptr inbounds [10 x [10 x i32]], [10 x [10 x i32]]* %3, i64 0, i64 %163
  %165 = load i32, i32* %5, align 4
  %166 = sext i32 %165 to i64
  %167 = getelementptr inbounds [10 x i32], [10 x i32]* %164, i64 0, i64 %166
  %168 = load i32, i32* %167, align 4
  %169 = add nsw i32 %168, %160
  store i32 %169, i32* %167, align 4
  %170 = load i32, i32* %4, align 4
  %171 = sext i32 %170 to i64
  %172 = getelementptr inbounds [10 x [10 x i32]], [10 x [10 x i32]]* %2, i64 0, i64 %171
  %173 = load i32, i32* %5, align 4
  %174 = sext i32 %173 to i64
  %175 = getelementptr inbounds [10 x i32], [10 x i32]* %172, i64 0, i64 %174
  %176 = load i32, i32* %175, align 4
  %177 = load i32, i32* %4, align 4
  %178 = add nsw i32 %177, 1
  %179 = sext i32 %178 to i64
  %180 = getelementptr inbounds [10 x [10 x i32]], [10 x [10 x i32]]* %3, i64 0, i64 %179
  %181 = load i32, i32* %5, align 4
  %182 = add nsw i32 %181, 1
  %183 = sext i32 %182 to i64
  %184 = getelementptr inbounds [10 x i32], [10 x i32]* %180, i64 0, i64 %183
  %185 = load i32, i32* %184, align 4
  %186 = add nsw i32 %185, %176
  store i32 %186, i32* %184, align 4
  br label %187

187:                                              ; preds = %39, %30
  br label %188

188:                                              ; preds = %187
  %189 = load i32, i32* %5, align 4
  %190 = add nsw i32 %189, 1
  store i32 %190, i32* %5, align 4
  br label %27

191:                                              ; preds = %27
  br label %192

192:                                              ; preds = %191
  %193 = load i32, i32* %4, align 4
  %194 = add nsw i32 %193, 1
  store i32 %194, i32* %4, align 4
  br label %23

195:                                              ; preds = %23
  store i32 1, i32* %4, align 4
  br label %196

196:                                              ; preds = %221, %195
  %197 = load i32, i32* %4, align 4
  %198 = icmp sle i32 %197, 9
  br i1 %198, label %199, label %224

199:                                              ; preds = %196
  store i32 1, i32* %5, align 4
  br label %200

200:                                              ; preds = %217, %199
  %201 = load i32, i32* %5, align 4
  %202 = icmp sle i32 %201, 9
  br i1 %202, label %203, label %220

203:                                              ; preds = %200
  %204 = load i32, i32* %4, align 4
  %205 = sext i32 %204 to i64
  %206 = getelementptr inbounds [10 x [10 x i32]], [10 x [10 x i32]]* %3, i64 0, i64 %205
  %207 = load i32, i32* %5, align 4
  %208 = sext i32 %207 to i64
  %209 = getelementptr inbounds [10 x i32], [10 x i32]* %206, i64 0, i64 %208
  %210 = load i32, i32* %209, align 4
  %211 = load i32, i32* %4, align 4
  %212 = sext i32 %211 to i64
  %213 = getelementptr inbounds [10 x [10 x i32]], [10 x [10 x i32]]* %2, i64 0, i64 %212
  %214 = load i32, i32* %5, align 4
  %215 = sext i32 %214 to i64
  %216 = getelementptr inbounds [10 x i32], [10 x i32]* %213, i64 0, i64 %215
  store i32 %210, i32* %216, align 4
  br label %217

217:                                              ; preds = %203
  %218 = load i32, i32* %5, align 4
  %219 = add nsw i32 %218, 1
  store i32 %219, i32* %5, align 4
  br label %200

220:                                              ; preds = %200
  br label %221

221:                                              ; preds = %220
  %222 = load i32, i32* %4, align 4
  %223 = add nsw i32 %222, 1
  store i32 %223, i32* %4, align 4
  br label %196

224:                                              ; preds = %196
  br label %225

225:                                              ; preds = %224
  %226 = load i32, i32* %6, align 4
  %227 = add nsw i32 %226, 1
  store i32 %227, i32* %6, align 4
  br label %18

228:                                              ; preds = %18
  store i32 1, i32* %4, align 4
  br label %229

229:                                              ; preds = %256, %228
  %230 = load i32, i32* %4, align 4
  %231 = icmp sle i32 %230, 9
  br i1 %231, label %232, label %259

232:                                              ; preds = %229
  %233 = load i32, i32* %4, align 4
  %234 = sext i32 %233 to i64
  %235 = getelementptr inbounds [10 x [10 x i32]], [10 x [10 x i32]]* %2, i64 0, i64 %234
  %236 = getelementptr inbounds [10 x i32], [10 x i32]* %235, i64 0, i64 1
  %237 = load i32, i32* %236, align 4
  %238 = call i32 (i8*, ...) @printf(i8* getelementptr inbounds ([3 x i8], [3 x i8]* @.str.1, i64 0, i64 0), i32 %237)
  store i32 2, i32* %5, align 4
  br label %239

239:                                              ; preds = %251, %232
  %240 = load i32, i32* %5, align 4
  %241 = icmp sle i32 %240, 9
  br i1 %241, label %242, label %254

242:                                              ; preds = %239
  %243 = load i32, i32* %4, align 4
  %244 = sext i32 %243 to i64
  %245 = getelementptr inbounds [10 x [10 x i32]], [10 x [10 x i32]]* %2, i64 0, i64 %244
  %246 = load i32, i32* %5, align 4
  %247 = sext i32 %246 to i64
  %248 = getelementptr inbounds [10 x i32], [10 x i32]* %245, i64 0, i64 %247
  %249 = load i32, i32* %248, align 4
  %250 = call i32 (i8*, ...) @printf(i8* getelementptr inbounds ([4 x i8], [4 x i8]* @.str.2, i64 0, i64 0), i32 %249)
  br label %251

251:                                              ; preds = %242
  %252 = load i32, i32* %5, align 4
  %253 = add nsw i32 %252, 1
  store i32 %253, i32* %5, align 4
  br label %239

254:                                              ; preds = %239
  %255 = call i32 (i8*, ...) @printf(i8* getelementptr inbounds ([2 x i8], [2 x i8]* @.str.3, i64 0, i64 0))
  br label %256

256:                                              ; preds = %254
  %257 = load i32, i32* %4, align 4
  %258 = add nsw i32 %257, 1
  store i32 %258, i32* %4, align 4
  br label %229

259:                                              ; preds = %229
  ret i32 0
}