; Function Attrs: nofree nounwind sspstrong uwtable
define dso_local i32 @main() local_unnamed_addr #0 {
  %1 = alloca [10 x [10 x i32]], align 16
  %2 = alloca [10 x [10 x i32]], align 16
  %3 = alloca i32, align 4
  %4 = bitcast [10 x [10 x i32]]* %1 to i8*
  call void @llvm.lifetime.start.p0i8(i64 400, i8* nonnull %4) #6
  call void @llvm.memset.p0i8.i64(i8* noundef nonnull align 16 dereferenceable(400) %4, i8 0, i64 400, i1 false)
  %5 = bitcast [10 x [10 x i32]]* %2 to i8*
  call void @llvm.lifetime.start.p0i8(i64 400, i8* nonnull %5) #6
  call void @llvm.memset.p0i8.i64(i8* noundef nonnull align 16 dereferenceable(400) %5, i8 0, i64 400, i1 false)
  %6 = bitcast i32* %3 to i8*
  call void @llvm.lifetime.start.p0i8(i64 4, i8* nonnull %6) #6
  %7 = getelementptr inbounds [10 x [10 x i32]], [10 x [10 x i32]]* %1, i64 0, i64 5, i64 5
  %8 = call i32 (i8*, ...) @__isoc99_scanf(i8* getelementptr inbounds ([5 x i8], [5 x i8]* @.str, i64 0, i64 0), i32* nonnull %7, i32* nonnull %3)
  %9 = load i32, i32* %7, align 4, !tbaa !5
  %10 = getelementptr inbounds [10 x [10 x i32]], [10 x [10 x i32]]* %2, i64 0, i64 5, i64 5
  store i32 %9, i32* %10, align 4, !tbaa !5
  %11 = load i32, i32* %3, align 4, !tbaa !5
  %12 = icmp slt i32 %11, 1
  br i1 %12, label %101, label %13

13:                                               ; preds = %0
  %14 = getelementptr inbounds [10 x [10 x i32]], [10 x [10 x i32]]* %1, i64 0, i64 1, i64 1
  %15 = bitcast i32* %14 to i8*
  %16 = getelementptr inbounds [10 x [10 x i32]], [10 x [10 x i32]]* %2, i64 0, i64 1, i64 1
  %17 = bitcast i32* %16 to i8*
  %18 = getelementptr inbounds [10 x [10 x i32]], [10 x [10 x i32]]* %1, i64 0, i64 2, i64 1
  %19 = bitcast i32* %18 to i8*
  %20 = getelementptr inbounds [10 x [10 x i32]], [10 x [10 x i32]]* %2, i64 0, i64 2, i64 1
  %21 = bitcast i32* %20 to i8*
  %22 = getelementptr inbounds [10 x [10 x i32]], [10 x [10 x i32]]* %1, i64 0, i64 3, i64 1
  %23 = bitcast i32* %22 to i8*
  %24 = getelementptr inbounds [10 x [10 x i32]], [10 x [10 x i32]]* %2, i64 0, i64 3, i64 1
  %25 = bitcast i32* %24 to i8*
  %26 = getelementptr inbounds [10 x [10 x i32]], [10 x [10 x i32]]* %1, i64 0, i64 4, i64 1
  %27 = bitcast i32* %26 to i8*
  %28 = getelementptr inbounds [10 x [10 x i32]], [10 x [10 x i32]]* %2, i64 0, i64 4, i64 1
  %29 = bitcast i32* %28 to i8*
  %30 = getelementptr inbounds [10 x [10 x i32]], [10 x [10 x i32]]* %1, i64 0, i64 5, i64 1
  %31 = bitcast i32* %30 to i8*
  %32 = getelementptr inbounds [10 x [10 x i32]], [10 x [10 x i32]]* %2, i64 0, i64 5, i64 1
  %33 = bitcast i32* %32 to i8*
  %34 = getelementptr inbounds [10 x [10 x i32]], [10 x [10 x i32]]* %1, i64 0, i64 6, i64 1
  %35 = bitcast i32* %34 to i8*
  %36 = getelementptr inbounds [10 x [10 x i32]], [10 x [10 x i32]]* %2, i64 0, i64 6, i64 1
  %37 = bitcast i32* %36 to i8*
  %38 = getelementptr inbounds [10 x [10 x i32]], [10 x [10 x i32]]* %1, i64 0, i64 7, i64 1
  %39 = bitcast i32* %38 to i8*
  %40 = getelementptr inbounds [10 x [10 x i32]], [10 x [10 x i32]]* %2, i64 0, i64 7, i64 1
  %41 = bitcast i32* %40 to i8*
  %42 = getelementptr inbounds [10 x [10 x i32]], [10 x [10 x i32]]* %1, i64 0, i64 8, i64 1
  %43 = bitcast i32* %42 to i8*
  %44 = getelementptr inbounds [10 x [10 x i32]], [10 x [10 x i32]]* %2, i64 0, i64 8, i64 1
  %45 = bitcast i32* %44 to i8*
  %46 = getelementptr inbounds [10 x [10 x i32]], [10 x [10 x i32]]* %1, i64 0, i64 9, i64 1
  %47 = bitcast i32* %46 to i8*
  %48 = getelementptr inbounds [10 x [10 x i32]], [10 x [10 x i32]]* %2, i64 0, i64 9, i64 1
  %49 = bitcast i32* %48 to i8*
  br label %50

50:                                               ; preds = %13, %98
  %51 = phi i32 [ %99, %98 ], [ 1, %13 ]
  br label %52

52:                                               ; preds = %50, %96
  %53 = phi i64 [ 1, %50 ], [ %55, %96 ]
  %54 = add nsw i64 %53, -1
  %55 = add nuw nsw i64 %53, 1
  br label %56

56:                                               ; preds = %52, %93
  %57 = phi i64 [ 1, %52 ], [ %94, %93 ]
  %58 = getelementptr inbounds [10 x [10 x i32]], [10 x [10 x i32]]* %1, i64 0, i64 %53, i64 %57
  %59 = load i32, i32* %58, align 4, !tbaa !5
  %60 = icmp eq i32 %59, 0
  br i1 %60, label %61, label %63

61:                                               ; preds = %56
  %62 = add nuw nsw i64 %57, 1
  br label %93

63:                                               ; preds = %56
  %64 = add nsw i64 %57, -1
  %65 = getelementptr inbounds [10 x [10 x i32]], [10 x [10 x i32]]* %2, i64 0, i64 %54, i64 %64
  %66 = load i32, i32* %65, align 4, !tbaa !5
  %67 = add nsw i32 %66, %59
  store i32 %67, i32* %65, align 4, !tbaa !5
  %68 = getelementptr inbounds [10 x [10 x i32]], [10 x [10 x i32]]* %2, i64 0, i64 %54, i64 %57
  %69 = load i32, i32* %68, align 4, !tbaa !5
  %70 = add nsw i32 %69, %59
  store i32 %70, i32* %68, align 4, !tbaa !5
  %71 = add nuw nsw i64 %57, 1
  %72 = getelementptr inbounds [10 x [10 x i32]], [10 x [10 x i32]]* %2, i64 0, i64 %54, i64 %71
  %73 = load i32, i32* %72, align 4, !tbaa !5
  %74 = add nsw i32 %73, %59
  store i32 %74, i32* %72, align 4, !tbaa !5
  %75 = getelementptr inbounds [10 x [10 x i32]], [10 x [10 x i32]]* %2, i64 0, i64 %53, i64 %64
  %76 = load i32, i32* %75, align 4, !tbaa !5
  %77 = add nsw i32 %76, %59
  store i32 %77, i32* %75, align 4, !tbaa !5
  %78 = getelementptr inbounds [10 x [10 x i32]], [10 x [10 x i32]]* %2, i64 0, i64 %53, i64 %57
  %79 = load i32, i32* %78, align 4, !tbaa !5
  %80 = add nsw i32 %79, %59
  store i32 %80, i32* %78, align 4, !tbaa !5
  %81 = getelementptr inbounds [10 x [10 x i32]], [10 x [10 x i32]]* %2, i64 0, i64 %53, i64 %71
  %82 = load i32, i32* %81, align 4, !tbaa !5
  %83 = add nsw i32 %82, %59
  store i32 %83, i32* %81, align 4, !tbaa !5
  %84 = getelementptr inbounds [10 x [10 x i32]], [10 x [10 x i32]]* %2, i64 0, i64 %55, i64 %64
  %85 = load i32, i32* %84, align 4, !tbaa !5
  %86 = add nsw i32 %85, %59
  store i32 %86, i32* %84, align 4, !tbaa !5
  %87 = getelementptr inbounds [10 x [10 x i32]], [10 x [10 x i32]]* %2, i64 0, i64 %55, i64 %57
  %88 = load i32, i32* %87, align 4, !tbaa !5
  %89 = add nsw i32 %88, %59
  store i32 %89, i32* %87, align 4, !tbaa !5
  %90 = getelementptr inbounds [10 x [10 x i32]], [10 x [10 x i32]]* %2, i64 0, i64 %55, i64 %71
  %91 = load i32, i32* %90, align 4, !tbaa !5
  %92 = add nsw i32 %91, %59
  store i32 %92, i32* %90, align 4, !tbaa !5
  br label %93

93:                                               ; preds = %61, %63
  %94 = phi i64 [ %62, %61 ], [ %71, %63 ]
  %95 = icmp eq i64 %94, 10
  br i1 %95, label %96, label %56, !llvm.loop !9

96:                                               ; preds = %93
  %97 = icmp eq i64 %55, 10
  br i1 %97, label %98, label %52, !llvm.loop !11

98:                                               ; preds = %96
  call void @llvm.memcpy.p0i8.p0i8.i64(i8* noundef nonnull align 4 dereferenceable(36) %15, i8* noundef nonnull align 4 dereferenceable(36) %17, i64 36, i1 false)
  call void @llvm.memcpy.p0i8.p0i8.i64(i8* noundef nonnull align 4 dereferenceable(36) %19, i8* noundef nonnull align 4 dereferenceable(36) %21, i64 36, i1 false)
  call void @llvm.memcpy.p0i8.p0i8.i64(i8* noundef nonnull align 4 dereferenceable(36) %23, i8* noundef nonnull align 4 dereferenceable(36) %25, i64 36, i1 false)
  call void @llvm.memcpy.p0i8.p0i8.i64(i8* noundef nonnull align 4 dereferenceable(36) %27, i8* noundef nonnull align 4 dereferenceable(36) %29, i64 36, i1 false)
  call void @llvm.memcpy.p0i8.p0i8.i64(i8* noundef nonnull align 4 dereferenceable(36) %31, i8* noundef nonnull align 4 dereferenceable(36) %33, i64 36, i1 false)
  call void @llvm.memcpy.p0i8.p0i8.i64(i8* noundef nonnull align 4 dereferenceable(36) %35, i8* noundef nonnull align 4 dereferenceable(36) %37, i64 36, i1 false)
  call void @llvm.memcpy.p0i8.p0i8.i64(i8* noundef nonnull align 4 dereferenceable(36) %39, i8* noundef nonnull align 4 dereferenceable(36) %41, i64 36, i1 false)
  call void @llvm.memcpy.p0i8.p0i8.i64(i8* noundef nonnull align 4 dereferenceable(36) %43, i8* noundef nonnull align 4 dereferenceable(36) %45, i64 36, i1 false)
  call void @llvm.memcpy.p0i8.p0i8.i64(i8* noundef nonnull align 4 dereferenceable(36) %47, i8* noundef nonnull align 4 dereferenceable(36) %49, i64 36, i1 false)
  %99 = add nuw i32 %51, 1
  %100 = icmp eq i32 %51, %11
  br i1 %100, label %101, label %50, !llvm.loop !12

101:                                              ; preds = %98, %0
  br label %102

102:                                              ; preds = %101, %102
  %103 = phi i64 [ %132, %102 ], [ 1, %101 ]
  %104 = getelementptr inbounds [10 x [10 x i32]], [10 x [10 x i32]]* %1, i64 0, i64 %103, i64 1
  %105 = load i32, i32* %104, align 4, !tbaa !5
  %106 = call i32 (i8*, ...) @printf(i8* nonnull dereferenceable(1) getelementptr inbounds ([3 x i8], [3 x i8]* @.str.1, i64 0, i64 0), i32 %105)
  %107 = getelementptr inbounds [10 x [10 x i32]], [10 x [10 x i32]]* %1, i64 0, i64 %103, i64 2
  %108 = load i32, i32* %107, align 8, !tbaa !5
  %109 = call i32 (i8*, ...) @printf(i8* nonnull dereferenceable(1) getelementptr inbounds ([4 x i8], [4 x i8]* @.str.2, i64 0, i64 0), i32 %108)
  %110 = getelementptr inbounds [10 x [10 x i32]], [10 x [10 x i32]]* %1, i64 0, i64 %103, i64 3
  %111 = load i32, i32* %110, align 4, !tbaa !5
  %112 = call i32 (i8*, ...) @printf(i8* nonnull dereferenceable(1) getelementptr inbounds ([4 x i8], [4 x i8]* @.str.2, i64 0, i64 0), i32 %111)
  %113 = getelementptr inbounds [10 x [10 x i32]], [10 x [10 x i32]]* %1, i64 0, i64 %103, i64 4
  %114 = load i32, i32* %113, align 8, !tbaa !5
  %115 = call i32 (i8*, ...) @printf(i8* nonnull dereferenceable(1) getelementptr inbounds ([4 x i8], [4 x i8]* @.str.2, i64 0, i64 0), i32 %114)
  %116 = getelementptr inbounds [10 x [10 x i32]], [10 x [10 x i32]]* %1, i64 0, i64 %103, i64 5
  %117 = load i32, i32* %116, align 4, !tbaa !5
  %118 = call i32 (i8*, ...) @printf(i8* nonnull dereferenceable(1) getelementptr inbounds ([4 x i8], [4 x i8]* @.str.2, i64 0, i64 0), i32 %117)
  %119 = getelementptr inbounds [10 x [10 x i32]], [10 x [10 x i32]]* %1, i64 0, i64 %103, i64 6
  %120 = load i32, i32* %119, align 8, !tbaa !5
  %121 = call i32 (i8*, ...) @printf(i8* nonnull dereferenceable(1) getelementptr inbounds ([4 x i8], [4 x i8]* @.str.2, i64 0, i64 0), i32 %120)
  %122 = getelementptr inbounds [10 x [10 x i32]], [10 x [10 x i32]]* %1, i64 0, i64 %103, i64 7
  %123 = load i32, i32* %122, align 4, !tbaa !5
  %124 = call i32 (i8*, ...) @printf(i8* nonnull dereferenceable(1) getelementptr inbounds ([4 x i8], [4 x i8]* @.str.2, i64 0, i64 0), i32 %123)
  %125 = getelementptr inbounds [10 x [10 x i32]], [10 x [10 x i32]]* %1, i64 0, i64 %103, i64 8
  %126 = load i32, i32* %125, align 8, !tbaa !5
  %127 = call i32 (i8*, ...) @printf(i8* nonnull dereferenceable(1) getelementptr inbounds ([4 x i8], [4 x i8]* @.str.2, i64 0, i64 0), i32 %126)
  %128 = getelementptr inbounds [10 x [10 x i32]], [10 x [10 x i32]]* %1, i64 0, i64 %103, i64 9
  %129 = load i32, i32* %128, align 4, !tbaa !5
  %130 = call i32 (i8*, ...) @printf(i8* nonnull dereferenceable(1) getelementptr inbounds ([4 x i8], [4 x i8]* @.str.2, i64 0, i64 0), i32 %129)
  %131 = call i32 @putchar(i32 10)
  %132 = add nuw nsw i64 %103, 1
  %133 = icmp eq i64 %132, 10
  br i1 %133, label %134, label %102, !llvm.loop !13

134:                                              ; preds = %102
  call void @llvm.lifetime.end.p0i8(i64 4, i8* nonnull %6) #6
  call void @llvm.lifetime.end.p0i8(i64 400, i8* nonnull %5) #6
  call void @llvm.lifetime.end.p0i8(i64 400, i8* nonnull %4) #6
  ret i32 0
}